; Function Attrs: mustprogress uwtable
define void @_ZN23MLDefaultMeshDecorators13drawTriVectorERKN3vcg8Matrix44IfEERSt6vectorISt4pairINS0_6Point3IfEENS0_6Color4IhEEESaISB_EE(ptr nocapture noundef nonnull readonly align 4 dereferenceable(64) %0, ptr nocapture noundef nonnull readonly align 8 dereferenceable(24) %1) local_unnamed_addr #9 align 2 personality ptr @__gxx_personality_v0 {
  %3 = alloca %"class.vcg::Matrix44", align 4
  tail call void @glPushAttrib(i32 noundef 10497)
  tail call void @glDisable(i32 noundef 2896)
  tail call void @glDepthFunc(i32 noundef 515)
  tail call void @glEnable(i32 noundef 2848)
  tail call void @glEnable(i32 noundef 3042)
  tail call void @glBlendFunc(i32 noundef 770, i32 noundef 771)
  tail call void @glLineWidth(float noundef 1.000000e+00)
  tail call void @glDepthRange(double noundef 0.000000e+00, double noundef 0x3FEFF7CED916872B)
  tail call void @glMatrixMode(i32 noundef 5888)
  tail call void @glPushMatrix()
  call void @llvm.lifetime.start.p0(i64 64, ptr nonnull %3)
  call void @llvm.memcpy.p0.p0.i64(ptr noundef nonnull align 4 dereferenceable(64) %3, ptr noundef nonnull align 4 dereferenceable(64) %0, i64 64, i1 false)
  br label %.preheader.i.i.i

.preheader.i.i.i:                                 ; preds = %13, %2
  %indvars.iv15.i.i.i = phi i64 [ 1, %2 ], [ %indvars.iv.next16.i.i.i, %13 ]
  %4 = shl nuw nsw i64 %indvars.iv15.i.i.i, 2
  br label %5

5:                                                ; preds = %5, %.preheader.i.i.i
  %indvars.iv.i.i.i = phi i64 [ 0, %.preheader.i.i.i ], [ %indvars.iv.next.i.i.i, %5 ]
  %6 = add nuw nsw i64 %indvars.iv.i.i.i, %4
  %7 = getelementptr inbounds [16 x float], ptr %3, i64 0, i64 %6
  %8 = shl i64 %indvars.iv.i.i.i, 2
  %9 = add nuw nsw i64 %8, %indvars.iv15.i.i.i
  %10 = getelementptr inbounds [16 x float], ptr %3, i64 0, i64 %9
  %11 = load float, ptr %7, align 4, !alias.scope !119
  %12 = load float, ptr %10, align 4, !alias.scope !119
  store float %12, ptr %7, align 4, !alias.scope !119
  store float %11, ptr %10, align 4, !alias.scope !119
  %indvars.iv.next.i.i.i = add nuw nsw i64 %indvars.iv.i.i.i, 1
  %exitcond.not.i.i.i = icmp eq i64 %indvars.iv.next.i.i.i, %indvars.iv15.i.i.i
  br i1 %exitcond.not.i.i.i, label %13, label %5, !llvm.loop !117

13:                                               ; preds = %5
  %indvars.iv.next16.i.i.i = add nuw nsw i64 %indvars.iv15.i.i.i, 1
  %exitcond18.not.i.i.i = icmp eq i64 %indvars.iv.next16.i.i.i, 4
  br i1 %exitcond18.not.i.i.i, label %_ZN3vcg12glMultMatrixERKNS_8Matrix44IfEE.exit, label %.preheader.i.i.i, !llvm.loop !118

_ZN3vcg12glMultMatrixERKNS_8Matrix44IfEE.exit:    ; preds = %13
  call void @glMultMatrixf(ptr noundef nonnull %3)
  call void @llvm.lifetime.end.p0(i64 64, ptr nonnull %3)
  %14 = getelementptr inbounds i8, ptr %1, i64 8
  %15 = load ptr, ptr %14, align 8
  %16 = load ptr, ptr %1, align 8
  %.not = icmp eq ptr %15, %16
  br i1 %.not, label %28, label %17

17:                                               ; preds = %_ZN3vcg12glMultMatrixERKNS_8Matrix44IfEE.exit
  call void @glEnableClientState(i32 noundef 32884)
  call void @glEnableClientState(i32 noundef 32886)
  %18 = load ptr, ptr %1, align 8
  call void @glVertexPointer(i32 noundef 3, i32 noundef 5126, i32 noundef 16, ptr noundef nonnull %18)
  %19 = load ptr, ptr %1, align 8
  %20 = getelementptr inbounds i8, ptr %19, i64 12
  call void @glColorPointer(i32 noundef 4, i32 noundef 5121, i32 noundef 16, ptr noundef nonnull %20)
  %21 = load ptr, ptr %14, align 8
  %22 = load ptr, ptr %1, align 8
  %23 = ptrtoint ptr %21 to i64
  %24 = ptrtoint ptr %22 to i64
  %25 = sub i64 %23, %24
  %26 = lshr exact i64 %25, 4
  %27 = trunc i64 %26 to i32
  call void @glDrawArrays(i32 noundef 4, i32 noundef 0, i32 noundef %27)
  call void @glDisableClientState(i32 noundef 32886)
  call void @glDisableClientState(i32 noundef 32884)
  br label %28

28:                                               ; preds = %17, %_ZN3vcg12glMultMatrixERKNS_8Matrix44IfEE.exit
  call void @glPopMatrix()
  call void @glPopAttrib()
  ret void
}